target datalayout = "e-m:e-p270:32:32-p271:32:32-p272:64:64-i64:64-i128:128-f80:128-n8:16:32:64-S128"
target triple = "x86_64-pc-linux-gnu"

; Function Attrs: nounwind uwtable
define internal void @invert_matrix3x3(ptr noundef %0, ptr noundef %1) #1 {
  %3 = alloca ptr, align 8
  %4 = alloca ptr, align 8
  %5 = alloca float, align 4
  %6 = alloca float, align 4
  %7 = alloca float, align 4
  %8 = alloca float, align 4
  %9 = alloca float, align 4
  %10 = alloca float, align 4
  %11 = alloca float, align 4
  %12 = alloca float, align 4
  %13 = alloca float, align 4
  %14 = alloca i32, align 4
  %15 = alloca i32, align 4
  %16 = alloca float, align 4
  store ptr %0, ptr %3, align 8, !tbaa !86
  store ptr %1, ptr %4, align 8, !tbaa !86
  call void @llvm.lifetime.start.p0(i64 4, ptr %5) #8
  %17 = load ptr, ptr %3, align 8, !tbaa !86
  %18 = getelementptr inbounds [3 x float], ptr %17, i64 0
  %19 = getelementptr inbounds [3 x float], ptr %18, i64 0, i64 0
  %20 = load float, ptr %19, align 4, !tbaa !65
  store float %20, ptr %5, align 4, !tbaa !65
  call void @llvm.lifetime.start.p0(i64 4, ptr %6) #8
  %21 = load ptr, ptr %3, align 8, !tbaa !86
  %22 = getelementptr inbounds [3 x float], ptr %21, i64 0
  %23 = getelementptr inbounds [3 x float], ptr %22, i64 0, i64 1
  %24 = load float, ptr %23, align 4, !tbaa !65
  store float %24, ptr %6, align 4, !tbaa !65
  call void @llvm.lifetime.start.p0(i64 4, ptr %7) #8
  %25 = load ptr, ptr %3, align 8, !tbaa !86
  %26 = getelementptr inbounds [3 x float], ptr %25, i64 0
  %27 = getelementptr inbounds [3 x float], ptr %26, i64 0, i64 2
  %28 = load float, ptr %27, align 4, !tbaa !65
  store float %28, ptr %7, align 4, !tbaa !65
  call void @llvm.lifetime.start.p0(i64 4, ptr %8) #8
  %29 = load ptr, ptr %3, align 8, !tbaa !86
  %30 = getelementptr inbounds [3 x float], ptr %29, i64 1
  %31 = getelementptr inbounds [3 x float], ptr %30, i64 0, i64 0
  %32 = load float, ptr %31, align 4, !tbaa !65
  store float %32, ptr %8, align 4, !tbaa !65
  call void @llvm.lifetime.start.p0(i64 4, ptr %9) #8
  %33 = load ptr, ptr %3, align 8, !tbaa !86
  %34 = getelementptr inbounds [3 x float], ptr %33, i64 1
  %35 = getelementptr inbounds [3 x float], ptr %34, i64 0, i64 1
  %36 = load float, ptr %35, align 4, !tbaa !65
  store float %36, ptr %9, align 4, !tbaa !65
  call void @llvm.lifetime.start.p0(i64 4, ptr %10) #8
  %37 = load ptr, ptr %3, align 8, !tbaa !86
  %38 = getelementptr inbounds [3 x float], ptr %37, i64 1
  %39 = getelementptr inbounds [3 x float], ptr %38, i64 0, i64 2
  %40 = load float, ptr %39, align 4, !tbaa !65
  store float %40, ptr %10, align 4, !tbaa !65
  call void @llvm.lifetime.start.p0(i64 4, ptr %11) #8
  %41 = load ptr, ptr %3, align 8, !tbaa !86
  %42 = getelementptr inbounds [3 x float], ptr %41, i64 2
  %43 = getelementptr inbounds [3 x float], ptr %42, i64 0, i64 0
  %44 = load float, ptr %43, align 4, !tbaa !65
  store float %44, ptr %11, align 4, !tbaa !65
  call void @llvm.lifetime.start.p0(i64 4, ptr %12) #8
  %45 = load ptr, ptr %3, align 8, !tbaa !86
  %46 = getelementptr inbounds [3 x float], ptr %45, i64 2
  %47 = getelementptr inbounds [3 x float], ptr %46, i64 0, i64 1
  %48 = load float, ptr %47, align 4, !tbaa !65
  store float %48, ptr %12, align 4, !tbaa !65
  call void @llvm.lifetime.start.p0(i64 4, ptr %13) #8
  %49 = load ptr, ptr %3, align 8, !tbaa !86
  %50 = getelementptr inbounds [3 x float], ptr %49, i64 2
  %51 = getelementptr inbounds [3 x float], ptr %50, i64 0, i64 2
  %52 = load float, ptr %51, align 4, !tbaa !65
  store float %52, ptr %13, align 4, !tbaa !65
  call void @llvm.lifetime.start.p0(i64 4, ptr %14) #8
  call void @llvm.lifetime.start.p0(i64 4, ptr %15) #8
  call void @llvm.lifetime.start.p0(i64 4, ptr %16) #8
  %53 = load float, ptr %9, align 4, !tbaa !65
  %54 = load float, ptr %13, align 4, !tbaa !65
  %55 = load float, ptr %12, align 4, !tbaa !65
  %56 = load float, ptr %10, align 4, !tbaa !65
  %57 = fmul nsz float %55, %56
  %58 = fneg nsz float %57
  %59 = call nsz float @llvm.fmuladd.f32(float %53, float %54, float %58)
  %60 = load ptr, ptr %4, align 8, !tbaa !86
  %61 = getelementptr inbounds [3 x float], ptr %60, i64 0
  %62 = getelementptr inbounds [3 x float], ptr %61, i64 0, i64 0
  store float %59, ptr %62, align 4, !tbaa !65
  %63 = load float, ptr %6, align 4, !tbaa !65
  %64 = load float, ptr %13, align 4, !tbaa !65
  %65 = load float, ptr %12, align 4, !tbaa !65
  %66 = load float, ptr %7, align 4, !tbaa !65
  %67 = fmul nsz float %65, %66
  %68 = fneg nsz float %67
  %69 = call nsz float @llvm.fmuladd.f32(float %63, float %64, float %68)
  %70 = fneg nsz float %69
  %71 = load ptr, ptr %4, align 8, !tbaa !86
  %72 = getelementptr inbounds [3 x float], ptr %71, i64 0
  %73 = getelementptr inbounds [3 x float], ptr %72, i64 0, i64 1
  store float %70, ptr %73, align 4, !tbaa !65
  %74 = load float, ptr %6, align 4, !tbaa !65
  %75 = load float, ptr %10, align 4, !tbaa !65
  %76 = load float, ptr %9, align 4, !tbaa !65
  %77 = load float, ptr %7, align 4, !tbaa !65
  %78 = fmul nsz float %76, %77
  %79 = fneg nsz float %78
  %80 = call nsz float @llvm.fmuladd.f32(float %74, float %75, float %79)
  %81 = load ptr, ptr %4, align 8, !tbaa !86
  %82 = getelementptr inbounds [3 x float], ptr %81, i64 0
  %83 = getelementptr inbounds [3 x float], ptr %82, i64 0, i64 2
  store float %80, ptr %83, align 4, !tbaa !65
  %84 = load float, ptr %8, align 4, !tbaa !65
  %85 = load float, ptr %13, align 4, !tbaa !65
  %86 = load float, ptr %11, align 4, !tbaa !65
  %87 = load float, ptr %10, align 4, !tbaa !65
  %88 = fmul nsz float %86, %87
  %89 = fneg nsz float %88
  %90 = call nsz float @llvm.fmuladd.f32(float %84, float %85, float %89)
  %91 = fneg nsz float %90
  %92 = load ptr, ptr %4, align 8, !tbaa !86
  %93 = getelementptr inbounds [3 x float], ptr %92, i64 1
  %94 = getelementptr inbounds [3 x float], ptr %93, i64 0, i64 0
  store float %91, ptr %94, align 4, !tbaa !65
  %95 = load float, ptr %5, align 4, !tbaa !65
  %96 = load float, ptr %13, align 4, !tbaa !65
  %97 = load float, ptr %11, align 4, !tbaa !65
  %98 = load float, ptr %7, align 4, !tbaa !65
  %99 = fmul nsz float %97, %98
  %100 = fneg nsz float %99
  %101 = call nsz float @llvm.fmuladd.f32(float %95, float %96, float %100)
  %102 = load ptr, ptr %4, align 8, !tbaa !86
  %103 = getelementptr inbounds [3 x float], ptr %102, i64 1
  %104 = getelementptr inbounds [3 x float], ptr %103, i64 0, i64 1
  store float %101, ptr %104, align 4, !tbaa !65
  %105 = load float, ptr %5, align 4, !tbaa !65
  %106 = load float, ptr %10, align 4, !tbaa !65
  %107 = load float, ptr %8, align 4, !tbaa !65
  %108 = load float, ptr %7, align 4, !tbaa !65
  %109 = fmul nsz float %107, %108
  %110 = fneg nsz float %109
  %111 = call nsz float @llvm.fmuladd.f32(float %105, float %106, float %110)
  %112 = fneg nsz float %111
  %113 = load ptr, ptr %4, align 8, !tbaa !86
  %114 = getelementptr inbounds [3 x float], ptr %113, i64 1
  %115 = getelementptr inbounds [3 x float], ptr %114, i64 0, i64 2
  store float %112, ptr %115, align 4, !tbaa !65
  %116 = load float, ptr %8, align 4, !tbaa !65
  %117 = load float, ptr %12, align 4, !tbaa !65
  %118 = load float, ptr %11, align 4, !tbaa !65
  %119 = load float, ptr %9, align 4, !tbaa !65
  %120 = fmul nsz float %118, %119
  %121 = fneg nsz float %120
  %122 = call nsz float @llvm.fmuladd.f32(float %116, float %117, float %121)
  %123 = load ptr, ptr %4, align 8, !tbaa !86
  %124 = getelementptr inbounds [3 x float], ptr %123, i64 2
  %125 = getelementptr inbounds [3 x float], ptr %124, i64 0, i64 0
  store float %122, ptr %125, align 4, !tbaa !65
  %126 = load float, ptr %5, align 4, !tbaa !65
  %127 = load float, ptr %12, align 4, !tbaa !65
  %128 = load float, ptr %11, align 4, !tbaa !65
  %129 = load float, ptr %6, align 4, !tbaa !65
  %130 = fmul nsz float %128, %129
  %131 = fneg nsz float %130
  %132 = call nsz float @llvm.fmuladd.f32(float %126, float %127, float %131)
  %133 = fneg nsz float %132
  %134 = load ptr, ptr %4, align 8, !tbaa !86
  %135 = getelementptr inbounds [3 x float], ptr %134, i64 2
  %136 = getelementptr inbounds [3 x float], ptr %135, i64 0, i64 1
  store float %133, ptr %136, align 4, !tbaa !65
  %137 = load float, ptr %5, align 4, !tbaa !65
  %138 = load float, ptr %9, align 4, !tbaa !65
  %139 = load float, ptr %8, align 4, !tbaa !65
  %140 = load float, ptr %6, align 4, !tbaa !65
  %141 = fmul nsz float %139, %140
  %142 = fneg nsz float %141
  %143 = call nsz float @llvm.fmuladd.f32(float %137, float %138, float %142)
  %144 = load ptr, ptr %4, align 8, !tbaa !86
  %145 = getelementptr inbounds [3 x float], ptr %144, i64 2
  %146 = getelementptr inbounds [3 x float], ptr %145, i64 0, i64 2
  store float %143, ptr %146, align 4, !tbaa !65
  %147 = load float, ptr %5, align 4, !tbaa !65
  %148 = load ptr, ptr %4, align 8, !tbaa !86
  %149 = getelementptr inbounds [3 x float], ptr %148, i64 0
  %150 = getelementptr inbounds [3 x float], ptr %149, i64 0, i64 0
  %151 = load float, ptr %150, align 4, !tbaa !65
  %152 = load float, ptr %8, align 4, !tbaa !65
  %153 = load ptr, ptr %4, align 8, !tbaa !86
  %154 = getelementptr inbounds [3 x float], ptr %153, i64 0
  %155 = getelementptr inbounds [3 x float], ptr %154, i64 0, i64 1
  %156 = load float, ptr %155, align 4, !tbaa !65
  %157 = fmul nsz float %152, %156
  %158 = call nsz float @llvm.fmuladd.f32(float %147, float %151, float %157)
  %159 = load float, ptr %11, align 4, !tbaa !65
  %160 = load ptr, ptr %4, align 8, !tbaa !86
  %161 = getelementptr inbounds [3 x float], ptr %160, i64 0
  %162 = getelementptr inbounds [3 x float], ptr %161, i64 0, i64 2
  %163 = load float, ptr %162, align 4, !tbaa !65
  %164 = call nsz float @llvm.fmuladd.f32(float %159, float %163, float %158)
  store float %164, ptr %16, align 4, !tbaa !65
  %165 = load float, ptr %16, align 4, !tbaa !65
  %166 = fpext nsz float %165 to double
  %167 = fdiv nsz double 1.000000e+00, %166
  %168 = fptrunc nsz double %167 to float
  store float %168, ptr %16, align 4, !tbaa !65
  store i32 0, ptr %14, align 4, !tbaa !28
  br label %169

169:                                              ; preds = %191, %2
  %170 = load i32, ptr %14, align 4, !tbaa !28
  %171 = icmp slt i32 %170, 3
  br i1 %171, label %172, label %194

172:                                              ; preds = %169
  store i32 0, ptr %15, align 4, !tbaa !28
  br label %173

173:                                              ; preds = %187, %172
  %174 = load i32, ptr %15, align 4, !tbaa !28
  %175 = icmp slt i32 %174, 3
  br i1 %175, label %176, label %190

176:                                              ; preds = %173
  %177 = load float, ptr %16, align 4, !tbaa !65
  %178 = load ptr, ptr %4, align 8, !tbaa !86
  %179 = load i32, ptr %14, align 4, !tbaa !28
  %180 = sext i32 %179 to i64
  %181 = getelementptr inbounds [3 x float], ptr %178, i64 %180
  %182 = load i32, ptr %15, align 4, !tbaa !28
  %183 = sext i32 %182 to i64
  %184 = getelementptr inbounds [3 x float], ptr %181, i64 0, i64 %183
  %185 = load float, ptr %184, align 4, !tbaa !65
  %186 = fmul nsz float %185, %177
  store float %186, ptr %184, align 4, !tbaa !65
  br label %187

187:                                              ; preds = %176
  %188 = load i32, ptr %15, align 4, !tbaa !28
  %189 = add nsw i32 %188, 1
  store i32 %189, ptr %15, align 4, !tbaa !28
  br label %173, !llvm.loop !109

190:                                              ; preds = %173
  br label %191

191:                                              ; preds = %190
  %192 = load i32, ptr %14, align 4, !tbaa !28
  %193 = add nsw i32 %192, 1
  store i32 %193, ptr %14, align 4, !tbaa !28
  br label %169, !llvm.loop !110

194:                                              ; preds = %169
  call void @llvm.lifetime.end.p0(i64 4, ptr %16) #8
  call void @llvm.lifetime.end.p0(i64 4, ptr %15) #8
  call void @llvm.lifetime.end.p0(i64 4, ptr %14) #8
  call void @llvm.lifetime.end.p0(i64 4, ptr %13) #8
  call void @llvm.lifetime.end.p0(i64 4, ptr %12) #8
  call void @llvm.lifetime.end.p0(i64 4, ptr %11) #8
  call void @llvm.lifetime.end.p0(i64 4, ptr %10) #8
  call void @llvm.lifetime.end.p0(i64 4, ptr %9) #8
  call void @llvm.lifetime.end.p0(i64 4, ptr %8) #8
  call void @llvm.lifetime.end.p0(i64 4, ptr %7) #8
  call void @llvm.lifetime.end.p0(i64 4, ptr %6) #8
  call void @llvm.lifetime.end.p0(i64 4, ptr %5) #8
  ret void
}