; Function Attrs: nofree norecurse nosync nounwind memory(argmem: readwrite) uwtable
define internal fastcc void @invert_matrix3x3(ptr noundef readonly captures(none) %0, ptr noundef captures(none) initializes((0, 36)) %1) unnamed_addr #6 {
  %3 = load float, ptr %0, align 4, !tbaa !54
  %4 = getelementptr inbounds nuw i8, ptr %0, i64 4
  %5 = load float, ptr %4, align 4, !tbaa !54
  %6 = getelementptr inbounds nuw i8, ptr %0, i64 8
  %7 = load float, ptr %6, align 4, !tbaa !54
  %8 = getelementptr inbounds nuw i8, ptr %0, i64 12
  %9 = load float, ptr %8, align 4, !tbaa !54
  %10 = getelementptr inbounds nuw i8, ptr %0, i64 16
  %11 = load float, ptr %10, align 4, !tbaa !54
  %12 = getelementptr inbounds nuw i8, ptr %0, i64 20
  %13 = load float, ptr %12, align 4, !tbaa !54
  %14 = getelementptr inbounds nuw i8, ptr %0, i64 24
  %15 = load float, ptr %14, align 4, !tbaa !54
  %16 = getelementptr inbounds nuw i8, ptr %0, i64 28
  %17 = load float, ptr %16, align 4, !tbaa !54
  %18 = getelementptr inbounds nuw i8, ptr %0, i64 32
  %19 = load float, ptr %18, align 4, !tbaa !54
  %20 = fneg nsz float %13
  %21 = fmul nsz float %17, %20
  %22 = tail call nsz float @llvm.fmuladd.f32(float %11, float %19, float %21)
  store float %22, ptr %1, align 4, !tbaa !54
  %23 = fneg nsz float %7
  %24 = fmul nsz float %17, %23
  %25 = tail call nsz float @llvm.fmuladd.f32(float %5, float %19, float %24)
  %26 = fneg nsz float %25
  %27 = getelementptr inbounds nuw i8, ptr %1, i64 4
  store float %26, ptr %27, align 4, !tbaa !54
  %28 = fmul nsz float %11, %23
  %29 = tail call nsz float @llvm.fmuladd.f32(float %5, float %13, float %28)
  %30 = getelementptr inbounds nuw i8, ptr %1, i64 8
  store float %29, ptr %30, align 4, !tbaa !54
  %31 = fmul nsz float %15, %20
  %32 = tail call nsz float @llvm.fmuladd.f32(float %9, float %19, float %31)
  %33 = fneg nsz float %32
  %34 = getelementptr inbounds nuw i8, ptr %1, i64 12
  store float %33, ptr %34, align 4, !tbaa !54
  %35 = fmul nsz float %15, %23
  %36 = tail call nsz float @llvm.fmuladd.f32(float %3, float %19, float %35)
  %37 = getelementptr inbounds nuw i8, ptr %1, i64 16
  store float %36, ptr %37, align 4, !tbaa !54
  %38 = fmul nsz float %9, %23
  %39 = tail call nsz float @llvm.fmuladd.f32(float %3, float %13, float %38)
  %40 = fneg nsz float %39
  %41 = getelementptr inbounds nuw i8, ptr %1, i64 20
  store float %40, ptr %41, align 4, !tbaa !54
  %42 = fneg nsz float %11
  %43 = fmul nsz float %15, %42
  %44 = tail call nsz float @llvm.fmuladd.f32(float %9, float %17, float %43)
  %45 = getelementptr inbounds nuw i8, ptr %1, i64 24
  store float %44, ptr %45, align 4, !tbaa !54
  %46 = fneg nsz float %5
  %47 = fmul nsz float %15, %46
  %48 = tail call nsz float @llvm.fmuladd.f32(float %3, float %17, float %47)
  %49 = fneg nsz float %48
  %50 = getelementptr inbounds nuw i8, ptr %1, i64 28
  store float %49, ptr %50, align 4, !tbaa !54
  %51 = fmul nsz float %9, %46
  %52 = tail call nsz float @llvm.fmuladd.f32(float %3, float %11, float %51)
  %53 = getelementptr inbounds nuw i8, ptr %1, i64 32
  store float %52, ptr %53, align 4, !tbaa !54
  %54 = fmul nsz float %9, %26
  %55 = tail call nsz float @llvm.fmuladd.f32(float %3, float %22, float %54)
  %56 = tail call nsz float @llvm.fmuladd.f32(float %15, float %29, float %55)
  %57 = fdiv nsz float 1.000000e+00, %56
  br label %.preheader

.preheader:                                       ; preds = %2, %62
  %indvars.iv72 = phi i64 [ 0, %2 ], [ %indvars.iv.next73, %62 ]
  br label %58

58:                                               ; preds = %.preheader, %58
  %indvars.iv = phi i64 [ 0, %.preheader ], [ %indvars.iv.next, %58 ]
  %59 = getelementptr inbounds nuw [3 x float], ptr %1, i64 %indvars.iv72, i64 %indvars.iv
  %60 = load float, ptr %59, align 4, !tbaa !54
  %61 = fmul nsz float %57, %60
  store float %61, ptr %59, align 4, !tbaa !54
  %indvars.iv.next = add nuw nsw i64 %indvars.iv, 1
  %exitcond.not = icmp eq i64 %indvars.iv.next, 3
  br i1 %exitcond.not, label %62, label %58, !llvm.loop !93

62:                                               ; preds = %58
  %indvars.iv.next73 = add nuw nsw i64 %indvars.iv72, 1
  %exitcond75.not = icmp eq i64 %indvars.iv.next73, 3
  br i1 %exitcond75.not, label %63, label %.preheader, !llvm.loop !94

63:                                               ; preds = %62
  ret void
}